; Function Attrs: null_pointer_is_valid sspstrong uwtable
define internal void @dtap_gmm_auth_ciph_resp(ptr noundef %0, ptr noundef %1, ptr noundef initializes((348, 352)) %2, i32 noundef %3, i32 noundef %4) #1 {
  %6 = getelementptr inbounds nuw i8, ptr %2, i64 348
  store i32 1, ptr %6, align 4
  %7 = icmp sgt i32 %4, 0
  br i1 %7, label %11, label %.thread

.thread:                                          ; preds = %5
  %8 = tail call ptr @get_gsm_a_msg_string(i32 noundef 5, i32 noundef 22)
  %9 = tail call ptr @get_gsm_a_msg_string(i32 noundef 4, i32 noundef 7)
  %10 = tail call ptr (ptr, ptr, ptr, ptr, i32, i32, ptr, ...) @proto_tree_add_expert_format(ptr noundef %1, ptr noundef %2, ptr noundef nonnull @ei_gsm_a_gm_missing_mandatory_element, ptr noundef %0, i32 noundef %3, i32 noundef 0, ptr noundef nonnull @.str.1096, ptr noundef %8, ptr noundef %9)
  br label %42

11:                                               ; preds = %5
  %12 = tail call zeroext i16 @elem_v_short(ptr noundef %0, ptr noundef %1, ptr noundef %2, i32 noundef 5, i32 noundef 22, i32 noundef %3, i32 noundef 1)
  %13 = tail call zeroext i16 @elem_v_short(ptr noundef %0, ptr noundef %1, ptr noundef %2, i32 noundef 4, i32 noundef 7, i32 noundef %3, i32 noundef 2)
  %14 = add nsw i32 %4, -1
  %15 = icmp eq i32 %14, 0
  br i1 %15, label %42, label %16

16:                                               ; preds = %11
  %17 = add i32 %3, 1
  %18 = tail call zeroext i16 @elem_tv(ptr noundef %0, ptr noundef %1, ptr noundef %2, i8 noundef zeroext 34, i32 noundef 1, i32 noundef 2, i32 noundef %17, ptr noundef null)
  %19 = zext i16 %18 to i32
  %20 = sub nsw i32 %14, %19
  %21 = icmp slt i32 %20, 1
  br i1 %21, label %42, label %22

22:                                               ; preds = %16
  %23 = add i32 %17, %19
  %24 = tail call zeroext i16 @elem_tlv(ptr noundef %0, ptr noundef %1, ptr noundef %2, i8 noundef zeroext 35, i32 noundef 4, i32 noundef 3, i32 noundef %23, i32 noundef %20, ptr noundef nonnull @.str.1123)
  %25 = zext i16 %24 to i32
  %26 = sub nsw i32 %20, %25
  %27 = icmp slt i32 %26, 1
  br i1 %27, label %42, label %28

28:                                               ; preds = %22
  %29 = add i32 %23, %25
  %30 = tail call zeroext i16 @elem_tlv(ptr noundef %0, ptr noundef %1, ptr noundef %2, i8 noundef zeroext 41, i32 noundef 1, i32 noundef 3, i32 noundef %29, i32 noundef %26, ptr noundef null)
  %31 = zext i16 %30 to i32
  %32 = sub nsw i32 %26, %31
  %33 = icmp slt i32 %32, 1
  br i1 %33, label %42, label %34

34:                                               ; preds = %28
  %35 = add i32 %29, %31
  %36 = tail call zeroext i16 @elem_tlv(ptr noundef %0, ptr noundef %1, ptr noundef %2, i8 noundef zeroext 67, i32 noundef 5, i32 noundef 38, i32 noundef %35, i32 noundef %32, ptr noundef null)
  %37 = zext i16 %36 to i32
  %.not78 = icmp eq i32 %32, %37
  br i1 %.not78, label %42, label %38

38:                                               ; preds = %34
  %39 = sub nsw i32 %32, %37
  %40 = add i32 %35, %37
  %41 = tail call ptr @proto_tree_add_expert(ptr noundef %1, ptr noundef %2, ptr noundef nonnull @ei_gsm_a_gm_extraneous_data, ptr noundef %0, i32 noundef %40, i32 noundef %39)
  br label %42

42:                                               ; preds = %.thread, %34, %38, %28, %22, %16, %11
  ret void
}